(lp0
(S'cppflags'
p1
ccopy_reg
_reconstructor
p2
(cino.utils
SpaceList
p3
c__builtin__
list
p4
(lp5
S'-mmcu=atmega2560'
p6
aS'-DF_CPU=16000000L'
p7
aS'-DARDUINO=105'
p8
aS'-I/usr/share/arduino/hardware/arduino/cores/arduino'
p9
aS'-ffunction-sections'
p10
aS'-fdata-sections'
p11
aS'-g'
p12
aS'-Os'
p13
aS'-w'
p14
aS'-I/usr/share/arduino/hardware/arduino/variants/mega'
p15
aS'-Ilib/ControllerLib'
p16
aS'-Ilib/ControllerLib/Examples'
p17
aS'-Ilib/ControllerLib/Examples/XboxController'
p18
aS'-Ilib/ControllerLib/Examples/Ps3Controller'
p19
aS'-Ilib/USB_Host_Shield'
p20
aS'-I/usr/share/arduino/hardware/arduino/cores/arduino'
p21
aS'-I/usr/share/arduino/hardware/arduino/cores/arduino/avr-libc'
p22
atp23
Rp24
tp25
a(S'cxx'
p26
S'/usr/share/arduino/hardware/tools/avr/bin/avr-g++'
p27
tp28
a(S'build_dir'
p29
S'.build/uno'
p30
tp31
a(S'avrdude'
p32
S'/usr/share/arduino/hardware/tools/avrdude'
p33
tp34
a(S'ar'
p35
S'/usr/share/arduino/hardware/tools/avr/bin/avr-ar'
p36
tp37
a(S'names'
p38
(dp39
S'cpp'
p40
S'%s.cpp'
p41
sS'obj'
p42
S'%s.o'
p43
sS'deps'
p44
S'%s.d'
p45
sS'lib'
p46
S'lib%s.a'
p47
stp48
a(S'ldflags'
p49
g2
(g3
g4
(lp50
g6
aS'-Wl,-Os'
p51
aS'-Wl,--gc-sections'
p52
atp53
Rp54
tp55
a(S'arduino_lib_version'
p56
g2
(cino.environment
Version
p57
c__builtin__
tuple
p58
(I1
I0
I5
tp59
tp60
Rp61
tp62
a(S'objcopy'
p63
S'/usr/share/arduino/hardware/tools/avr/bin/avr-objcopy'
p64
tp65
a(S'board_models'
p66
cino.environment
BoardModels
p67
((lp68
(lp69
S'uno'
p70
a(dp71
S'bootloader'
p72
(dp73
S'extended_fuses'
p74
S'0x05'
p75
sS'high_fuses'
p76
S'0xde'
p77
sS'low_fuses'
p78
S'0xff'
p79
sS'lock_bits'
p80
S'0x0F'
p81
sS'file'
p82
S'optiboot_atmega328.hex'
p83
sS'path'
p84
S'optiboot'
p85
sS'unlock_bits'
p86
S'0x3F'
p87
ssS'upload'
p88
(dp89
S'speed'
p90
S'115200'
p91
sS'maximum_size'
p92
S'32256'
p93
sS'protocol'
p94
S'arduino'
p95
ssS'name'
p96
S'Arduino Uno'
p97
sS'build'
p98
(dp99
S'core'
p100
S'arduino'
p101
sS'mcu'
p102
S'atmega328p'
p103
sS'f_cpu'
p104
S'16000000L'
p105
sS'variant'
p106
S'standard'
p107
ssaa(lp108
S'atmega328'
p109
a(dp110
S'bootloader'
p111
(dp112
S'extended_fuses'
p113
S'0x05'
p114
sS'high_fuses'
p115
S'0xDA'
p116
sS'low_fuses'
p117
S'0xFF'
p118
sS'lock_bits'
p119
S'0x0F'
p120
sS'file'
p121
S'ATmegaBOOT_168_atmega328.hex'
p122
sS'path'
p123
S'atmega'
p124
sS'unlock_bits'
p125
S'0x3F'
p126
ssS'upload'
p127
(dp128
S'speed'
p129
S'57600'
p130
sS'maximum_size'
p131
S'30720'
p132
sS'protocol'
p133
S'arduino'
p134
ssS'name'
p135
S'Arduino Duemilanove w/ ATmega328'
p136
sS'build'
p137
(dp138
S'core'
p139
S'arduino'
p140
sS'mcu'
p141
S'atmega328p'
p142
sS'f_cpu'
p143
S'16000000L'
p144
sS'variant'
p145
S'standard'
p146
ssaa(lp147
S'diecimila'
p148
a(dp149
S'bootloader'
p150
(dp151
S'extended_fuses'
p152
S'0x00'
p153
sS'high_fuses'
p154
S'0xdd'
p155
sS'low_fuses'
p156
S'0xff'
p157
sS'lock_bits'
p158
S'0x0F'
p159
sS'file'
p160
S'ATmegaBOOT_168_diecimila.hex'
p161
sS'path'
p162
S'atmega'
p163
sS'unlock_bits'
p164
S'0x3F'
p165
ssS'upload'
p166
(dp167
S'speed'
p168
S'19200'
p169
sS'maximum_size'
p170
S'14336'
p171
sS'protocol'
p172
S'arduino'
p173
ssS'name'
p174
S'Arduino Diecimila or Duemilanove w/ ATmega168'
p175
sS'build'
p176
(dp177
S'core'
p178
S'arduino'
p179
sS'mcu'
p180
S'atmega168'
p181
sS'f_cpu'
p182
S'16000000L'
p183
sS'variant'
p184
S'standard'
p185
ssaa(lp186
S'nano328'
p187
a(dp188
S'bootloader'
p189
(dp190
S'extended_fuses'
p191
S'0x05'
p192
sS'high_fuses'
p193
S'0xDA'
p194
sS'low_fuses'
p195
S'0xFF'
p196
sS'lock_bits'
p197
S'0x0F'
p198
sS'file'
p199
S'ATmegaBOOT_168_atmega328.hex'
p200
sS'path'
p201
S'atmega'
p202
sS'unlock_bits'
p203
S'0x3F'
p204
ssS'upload'
p205
(dp206
S'speed'
p207
S'57600'
p208
sS'maximum_size'
p209
S'30720'
p210
sS'protocol'
p211
S'arduino'
p212
ssS'name'
p213
S'Arduino Nano w/ ATmega328'
p214
sS'build'
p215
(dp216
S'core'
p217
S'arduino'
p218
sS'mcu'
p219
S'atmega328p'
p220
sS'f_cpu'
p221
S'16000000L'
p222
sS'variant'
p223
S'eightanaloginputs'
p224
ssaa(lp225
S'nano'
p226
a(dp227
S'bootloader'
p228
(dp229
S'extended_fuses'
p230
S'0x00'
p231
sS'high_fuses'
p232
S'0xdd'
p233
sS'low_fuses'
p234
S'0xff'
p235
sS'lock_bits'
p236
S'0x0F'
p237
sS'file'
p238
S'ATmegaBOOT_168_diecimila.hex'
p239
sS'path'
p240
S'atmega'
p241
sS'unlock_bits'
p242
S'0x3F'
p243
ssS'upload'
p244
(dp245
S'speed'
p246
S'19200'
p247
sS'maximum_size'
p248
S'14336'
p249
sS'protocol'
p250
S'arduino'
p251
ssS'name'
p252
S'Arduino Nano w/ ATmega168'
p253
sS'build'
p254
(dp255
S'core'
p256
S'arduino'
p257
sS'mcu'
p258
S'atmega168'
p259
sS'f_cpu'
p260
S'16000000L'
p261
sS'variant'
p262
S'eightanaloginputs'
p263
ssaa(lp264
S'mega2560'
p265
a(dp266
S'bootloader'
p267
(dp268
S'extended_fuses'
p269
S'0xFD'
p270
sS'high_fuses'
p271
S'0xD8'
p272
sS'low_fuses'
p273
S'0xFF'
p274
sS'lock_bits'
p275
S'0x0F'
p276
sS'file'
p277
S'stk500boot_v2_mega2560.hex'
p278
sS'path'
p279
S'stk500v2'
p280
sS'unlock_bits'
p281
S'0x3F'
p282
ssS'upload'
p283
(dp284
S'speed'
p285
S'115200'
p286
sS'maximum_size'
p287
S'258048'
p288
sS'protocol'
p289
S'wiring'
p290
ssS'name'
p291
S'Arduino Mega 2560 or Mega ADK'
p292
sS'build'
p293
(dp294
S'core'
p295
S'arduino'
p296
sS'mcu'
p297
S'atmega2560'
p298
sS'f_cpu'
p299
S'16000000L'
p300
sS'variant'
p301
S'mega'
p302
ssaa(lp303
S'mega'
p304
a(dp305
S'bootloader'
p306
(dp307
S'extended_fuses'
p308
S'0xF5'
p309
sS'high_fuses'
p310
S'0xDA'
p311
sS'low_fuses'
p312
S'0xFF'
p313
sS'lock_bits'
p314
S'0x0F'
p315
sS'file'
p316
S'ATmegaBOOT_168_atmega1280.hex'
p317
sS'path'
p318
S'atmega'
p319
sS'unlock_bits'
p320
S'0x3F'
p321
ssS'upload'
p322
(dp323
S'speed'
p324
S'57600'
p325
sS'maximum_size'
p326
S'126976'
p327
sS'protocol'
p328
S'arduino'
p329
ssS'name'
p330
S'Arduino Mega (ATmega1280)'
p331
sS'build'
p332
(dp333
S'core'
p334
S'arduino'
p335
sS'mcu'
p336
S'atmega1280'
p337
sS'f_cpu'
p338
S'16000000L'
p339
sS'variant'
p340
S'mega'
p341
ssaa(lp342
S'leonardo'
p343
a(dp344
S'bootloader'
p345
(dp346
S'extended_fuses'
p347
S'0xcb'
p348
sS'high_fuses'
p349
S'0xd8'
p350
sS'low_fuses'
p351
S'0xff'
p352
sS'lock_bits'
p353
S'0x2F'
p354
sS'file'
p355
S'Caterina-Leonardo.hex'
p356
sS'path'
p357
S'caterina'
p358
sS'unlock_bits'
p359
S'0x3F'
p360
ssS'upload'
p361
(dp362
S'speed'
p363
S'57600'
p364
sS'maximum_size'
p365
S'28672'
p366
sS'protocol'
p367
S'avr109'
p368
sS'disable_flushing'
p369
S'true'
p370
ssS'name'
p371
S'Arduino Leonardo'
p372
sS'build'
p373
(dp374
S'core'
p375
S'arduino'
p376
sS'f_cpu'
p377
S'16000000L'
p378
sS'vid'
p379
S'0x2341'
p380
sS'pid'
p381
S'0x8036'
p382
sS'variant'
p383
S'leonardo'
p384
sS'mcu'
p385
S'atmega32u4'
p386
ssaa(lp387
S'esplora'
p388
a(dp389
S'bootloader'
p390
(dp391
S'extended_fuses'
p392
S'0xcb'
p393
sS'high_fuses'
p394
S'0xd8'
p395
sS'low_fuses'
p396
S'0xff'
p397
sS'lock_bits'
p398
S'0x2F'
p399
sS'file'
p400
S'Caterina-Esplora.hex'
p401
sS'path'
p402
S'caterina'
p403
sS'unlock_bits'
p404
S'0x3F'
p405
ssS'upload'
p406
(dp407
S'speed'
p408
S'57600'
p409
sS'maximum_size'
p410
S'28672'
p411
sS'protocol'
p412
S'avr109'
p413
sS'disable_flushing'
p414
S'true'
p415
ssS'name'
p416
S'Arduino Esplora'
p417
sS'build'
p418
(dp419
S'core'
p420
S'arduino'
p421
sS'f_cpu'
p422
S'16000000L'
p423
sS'vid'
p424
S'0x2341'
p425
sS'pid'
p426
S'0x803C'
p427
sS'variant'
p428
S'leonardo'
p429
sS'mcu'
p430
S'atmega32u4'
p431
ssaa(lp432
S'micro'
p433
a(dp434
S'bootloader'
p435
(dp436
S'extended_fuses'
p437
S'0xcb'
p438
sS'high_fuses'
p439
S'0xd8'
p440
sS'low_fuses'
p441
S'0xff'
p442
sS'lock_bits'
p443
S'0x2F'
p444
sS'file'
p445
S'Caterina-Micro.hex'
p446
sS'path'
p447
S'caterina'
p448
sS'unlock_bits'
p449
S'0x3F'
p450
ssS'upload'
p451
(dp452
S'speed'
p453
S'57600'
p454
sS'maximum_size'
p455
S'28672'
p456
sS'protocol'
p457
S'avr109'
p458
sS'disable_flushing'
p459
S'true'
p460
ssS'name'
p461
S'Arduino Micro'
p462
sS'build'
p463
(dp464
S'core'
p465
S'arduino'
p466
sS'f_cpu'
p467
S'16000000L'
p468
sS'vid'
p469
S'0x2341'
p470
sS'pid'
p471
S'0x8037'
p472
sS'variant'
p473
S'micro'
p474
sS'mcu'
p475
S'atmega32u4'
p476
ssaa(lp477
S'mini328'
p478
a(dp479
S'bootloader'
p480
(dp481
S'extended_fuses'
p482
S'0x05'
p483
sS'high_fuses'
p484
S'0xd8'
p485
sS'low_fuses'
p486
S'0xff'
p487
sS'lock_bits'
p488
S'0x0F'
p489
sS'file'
p490
S'optiboot_atmega328-Mini.hex'
p491
sS'path'
p492
S'optiboot'
p493
sS'unlock_bits'
p494
S'0x3F'
p495
ssS'upload'
p496
(dp497
S'speed'
p498
S'115200'
p499
sS'maximum_size'
p500
S'28672'
p501
sS'protocol'
p502
S'arduino'
p503
ssS'name'
p504
S'Arduino Mini w/ ATmega328'
p505
sS'build'
p506
(dp507
S'core'
p508
S'arduino'
p509
sS'mcu'
p510
S'atmega328p'
p511
sS'f_cpu'
p512
S'16000000L'
p513
sS'variant'
p514
S'eightanaloginputs'
p515
ssaa(lp516
S'mini'
p517
a(dp518
S'bootloader'
p519
(dp520
S'extended_fuses'
p521
S'0x00'
p522
sS'high_fuses'
p523
S'0xdd'
p524
sS'low_fuses'
p525
S'0xff'
p526
sS'lock_bits'
p527
S'0x0F'
p528
sS'file'
p529
S'ATmegaBOOT_168_ng.hex'
p530
sS'path'
p531
S'atmega'
p532
sS'unlock_bits'
p533
S'0x3F'
p534
ssS'upload'
p535
(dp536
S'speed'
p537
S'19200'
p538
sS'maximum_size'
p539
S'14336'
p540
sS'protocol'
p541
S'arduino'
p542
ssS'name'
p543
S'Arduino Mini w/ ATmega168'
p544
sS'build'
p545
(dp546
S'core'
p547
S'arduino'
p548
sS'mcu'
p549
S'atmega168'
p550
sS'f_cpu'
p551
S'16000000L'
p552
sS'variant'
p553
S'eightanaloginputs'
p554
ssaa(lp555
S'ethernet'
p556
a(dp557
S'bootloader'
p558
(dp559
S'extended_fuses'
p560
S'0x05'
p561
sS'high_fuses'
p562
S'0xde'
p563
sS'low_fuses'
p564
S'0xff'
p565
sS'lock_bits'
p566
S'0x0F'
p567
sS'file'
p568
S'optiboot_atmega328.hex'
p569
sS'path'
p570
S'optiboot'
p571
sS'unlock_bits'
p572
S'0x3F'
p573
ssS'upload'
p574
(dp575
S'speed'
p576
S'115200'
p577
sS'maximum_size'
p578
S'32256'
p579
sS'protocol'
p580
S'arduino'
p581
ssS'name'
p582
S'Arduino Ethernet'
p583
sS'build'
p584
(dp585
S'f_cpu'
p586
S'16000000L'
p587
sS'mcu'
p588
S'atmega328p'
p589
sS'variant'
p590
S'standard'
p591
sS'core'
p592
S'arduino'
p593
ssaa(lp594
S'fio'
p595
a(dp596
S'bootloader'
p597
(dp598
S'extended_fuses'
p599
S'0x05'
p600
sS'high_fuses'
p601
S'0xDA'
p602
sS'low_fuses'
p603
S'0xFF'
p604
sS'lock_bits'
p605
S'0x0F'
p606
sS'file'
p607
S'ATmegaBOOT_168_atmega328_pro_8MHz.hex'
p608
sS'path'
p609
S'arduino:atmega'
p610
sS'unlock_bits'
p611
S'0x3F'
p612
ssS'upload'
p613
(dp614
S'speed'
p615
S'57600'
p616
sS'maximum_size'
p617
S'30720'
p618
sS'protocol'
p619
S'arduino'
p620
ssS'name'
p621
S'Arduino Fio'
p622
sS'build'
p623
(dp624
S'core'
p625
S'arduino'
p626
sS'mcu'
p627
S'atmega328p'
p628
sS'f_cpu'
p629
S'8000000L'
p630
sS'variant'
p631
S'eightanaloginputs'
p632
ssaa(lp633
S'bt328'
p634
a(dp635
S'bootloader'
p636
(dp637
S'extended_fuses'
p638
S'0x05'
p639
sS'high_fuses'
p640
S'0xd8'
p641
sS'low_fuses'
p642
S'0xff'
p643
sS'lock_bits'
p644
S'0x0F'
p645
sS'file'
p646
S'ATmegaBOOT_168_atmega328_bt.hex'
p647
sS'path'
p648
S'bt'
p649
sS'unlock_bits'
p650
S'0x3F'
p651
ssS'upload'
p652
(dp653
S'speed'
p654
S'19200'
p655
sS'maximum_size'
p656
S'28672'
p657
sS'protocol'
p658
S'arduino'
p659
sS'disable_flushing'
p660
S'true'
p661
ssS'name'
p662
S'Arduino BT w/ ATmega328'
p663
sS'build'
p664
(dp665
S'core'
p666
S'arduino'
p667
sS'mcu'
p668
S'atmega328p'
p669
sS'f_cpu'
p670
S'16000000L'
p671
sS'variant'
p672
S'eightanaloginputs'
p673
ssaa(lp674
S'bt'
p675
a(dp676
S'bootloader'
p677
(dp678
S'extended_fuses'
p679
S'0x00'
p680
sS'high_fuses'
p681
S'0xdd'
p682
sS'low_fuses'
p683
S'0xff'
p684
sS'lock_bits'
p685
S'0x0F'
p686
sS'file'
p687
S'ATmegaBOOT_168.hex'
p688
sS'path'
p689
S'bt'
p690
sS'unlock_bits'
p691
S'0x3F'
p692
ssS'upload'
p693
(dp694
S'speed'
p695
S'19200'
p696
sS'maximum_size'
p697
S'14336'
p698
sS'protocol'
p699
S'arduino'
p700
sS'disable_flushing'
p701
S'true'
p702
ssS'name'
p703
S'Arduino BT w/ ATmega168'
p704
sS'build'
p705
(dp706
S'core'
p707
S'arduino'
p708
sS'mcu'
p709
S'atmega168'
p710
sS'f_cpu'
p711
S'16000000L'
p712
sS'variant'
p713
S'eightanaloginputs'
p714
ssaa(lp715
S'LilyPadUSB'
p716
a(dp717
S'bootloader'
p718
(dp719
S'extended_fuses'
p720
S'0xce'
p721
sS'high_fuses'
p722
S'0xd8'
p723
sS'low_fuses'
p724
S'0xff'
p725
sS'lock_bits'
p726
S'0x2F'
p727
sS'file'
p728
S'Caterina-LilyPadUSB.hex'
p729
sS'path'
p730
S'caterina-LilyPadUSB'
p731
sS'unlock_bits'
p732
S'0x3F'
p733
ssS'upload'
p734
(dp735
S'speed'
p736
S'57600'
p737
sS'maximum_size'
p738
S'28672'
p739
sS'protocol'
p740
S'avr109'
p741
sS'disable_flushing'
p742
S'true'
p743
ssS'name'
p744
S'LilyPad Arduino USB'
p745
sS'build'
p746
(dp747
S'core'
p748
S'arduino'
p749
sS'f_cpu'
p750
S'8000000L'
p751
sS'vid'
p752
S'0x1B4F'
p753
sS'pid'
p754
S'0x9208'
p755
sS'variant'
p756
S'leonardo'
p757
sS'mcu'
p758
S'atmega32u4'
p759
ssaa(lp760
S'lilypad328'
p761
a(dp762
S'bootloader'
p763
(dp764
S'extended_fuses'
p765
S'0x05'
p766
sS'high_fuses'
p767
S'0xDA'
p768
sS'low_fuses'
p769
S'0xFF'
p770
sS'lock_bits'
p771
S'0x0F'
p772
sS'file'
p773
S'ATmegaBOOT_168_atmega328_pro_8MHz.hex'
p774
sS'path'
p775
S'atmega'
p776
sS'unlock_bits'
p777
S'0x3F'
p778
ssS'upload'
p779
(dp780
S'speed'
p781
S'57600'
p782
sS'maximum_size'
p783
S'30720'
p784
sS'protocol'
p785
S'arduino'
p786
ssS'name'
p787
S'LilyPad Arduino w/ ATmega328'
p788
sS'build'
p789
(dp790
S'core'
p791
S'arduino'
p792
sS'mcu'
p793
S'atmega328p'
p794
sS'f_cpu'
p795
S'8000000L'
p796
sS'variant'
p797
S'standard'
p798
ssaa(lp799
S'lilypad'
p800
a(dp801
S'bootloader'
p802
(dp803
S'extended_fuses'
p804
S'0x00'
p805
sS'high_fuses'
p806
S'0xdd'
p807
sS'low_fuses'
p808
S'0xe2'
p809
sS'lock_bits'
p810
S'0x0F'
p811
sS'file'
p812
S'LilyPadBOOT_168.hex'
p813
sS'path'
p814
S'lilypad'
p815
sS'unlock_bits'
p816
S'0x3F'
p817
ssS'upload'
p818
(dp819
S'speed'
p820
S'19200'
p821
sS'maximum_size'
p822
S'14336'
p823
sS'protocol'
p824
S'arduino'
p825
ssS'name'
p826
S'LilyPad Arduino w/ ATmega168'
p827
sS'build'
p828
(dp829
S'core'
p830
S'arduino'
p831
sS'mcu'
p832
S'atmega168'
p833
sS'f_cpu'
p834
S'8000000L'
p835
sS'variant'
p836
S'standard'
p837
ssaa(lp838
S'pro5v328'
p839
a(dp840
S'bootloader'
p841
(dp842
S'extended_fuses'
p843
S'0x05'
p844
sS'high_fuses'
p845
S'0xDA'
p846
sS'low_fuses'
p847
S'0xFF'
p848
sS'lock_bits'
p849
S'0x0F'
p850
sS'file'
p851
S'ATmegaBOOT_168_atmega328.hex'
p852
sS'path'
p853
S'atmega'
p854
sS'unlock_bits'
p855
S'0x3F'
p856
ssS'upload'
p857
(dp858
S'speed'
p859
S'57600'
p860
sS'maximum_size'
p861
S'30720'
p862
sS'protocol'
p863
S'arduino'
p864
ssS'name'
p865
S'Arduino Pro or Pro Mini (5V, 16 MHz) w/ ATmega328'
p866
sS'build'
p867
(dp868
S'core'
p869
S'arduino'
p870
sS'mcu'
p871
S'atmega328p'
p872
sS'f_cpu'
p873
S'16000000L'
p874
sS'variant'
p875
S'standard'
p876
ssaa(lp877
S'pro5v'
p878
a(dp879
S'bootloader'
p880
(dp881
S'extended_fuses'
p882
S'0x00'
p883
sS'high_fuses'
p884
S'0xdd'
p885
sS'low_fuses'
p886
S'0xff'
p887
sS'lock_bits'
p888
S'0x0F'
p889
sS'file'
p890
S'ATmegaBOOT_168_diecimila.hex'
p891
sS'path'
p892
S'atmega'
p893
sS'unlock_bits'
p894
S'0x3F'
p895
ssS'upload'
p896
(dp897
S'speed'
p898
S'19200'
p899
sS'maximum_size'
p900
S'14336'
p901
sS'protocol'
p902
S'arduino'
p903
ssS'name'
p904
S'Arduino Pro or Pro Mini (5V, 16 MHz) w/ ATmega168'
p905
sS'build'
p906
(dp907
S'core'
p908
S'arduino'
p909
sS'mcu'
p910
S'atmega168'
p911
sS'f_cpu'
p912
S'16000000L'
p913
sS'variant'
p914
S'standard'
p915
ssaa(lp916
S'pro328'
p917
a(dp918
S'bootloader'
p919
(dp920
S'extended_fuses'
p921
S'0x05'
p922
sS'high_fuses'
p923
S'0xDA'
p924
sS'low_fuses'
p925
S'0xFF'
p926
sS'lock_bits'
p927
S'0x0F'
p928
sS'file'
p929
S'ATmegaBOOT_168_atmega328_pro_8MHz.hex'
p930
sS'path'
p931
S'atmega'
p932
sS'unlock_bits'
p933
S'0x3F'
p934
ssS'upload'
p935
(dp936
S'speed'
p937
S'57600'
p938
sS'maximum_size'
p939
S'30720'
p940
sS'protocol'
p941
S'arduino'
p942
ssS'name'
p943
S'Arduino Pro or Pro Mini (3.3V, 8 MHz) w/ ATmega328'
p944
sS'build'
p945
(dp946
S'core'
p947
S'arduino'
p948
sS'mcu'
p949
S'atmega328p'
p950
sS'f_cpu'
p951
S'8000000L'
p952
sS'variant'
p953
S'standard'
p954
ssaa(lp955
S'pro'
p956
a(dp957
S'bootloader'
p958
(dp959
S'extended_fuses'
p960
S'0x00'
p961
sS'high_fuses'
p962
S'0xdd'
p963
sS'low_fuses'
p964
S'0xc6'
p965
sS'lock_bits'
p966
S'0x0F'
p967
sS'file'
p968
S'ATmegaBOOT_168_pro_8MHz.hex'
p969
sS'path'
p970
S'atmega'
p971
sS'unlock_bits'
p972
S'0x3F'
p973
ssS'upload'
p974
(dp975
S'speed'
p976
S'19200'
p977
sS'maximum_size'
p978
S'14336'
p979
sS'protocol'
p980
S'arduino'
p981
ssS'name'
p982
S'Arduino Pro or Pro Mini (3.3V, 8 MHz) w/ ATmega168'
p983
sS'build'
p984
(dp985
S'core'
p986
S'arduino'
p987
sS'mcu'
p988
S'atmega168'
p989
sS'f_cpu'
p990
S'8000000L'
p991
sS'variant'
p992
S'standard'
p993
ssaa(lp994
S'atmega168'
p995
a(dp996
S'bootloader'
p997
(dp998
S'extended_fuses'
p999
S'0x00'
p1000
sS'high_fuses'
p1001
S'0xdd'
p1002
sS'low_fuses'
p1003
S'0xff'
p1004
sS'lock_bits'
p1005
S'0x0F'
p1006
sS'file'
p1007
S'ATmegaBOOT_168_ng.hex'
p1008
sS'path'
p1009
S'atmega'
p1010
sS'unlock_bits'
p1011
S'0x3F'
p1012
ssS'upload'
p1013
(dp1014
S'speed'
p1015
S'19200'
p1016
sS'maximum_size'
p1017
S'14336'
p1018
sS'protocol'
p1019
S'arduino'
p1020
ssS'name'
p1021
S'Arduino NG or older w/ ATmega168'
p1022
sS'build'
p1023
(dp1024
S'core'
p1025
S'arduino'
p1026
sS'mcu'
p1027
S'atmega168'
p1028
sS'f_cpu'
p1029
S'16000000L'
p1030
sS'variant'
p1031
S'standard'
p1032
ssaa(lp1033
S'atmega8'
p1034
a(dp1035
S'bootloader'
p1036
(dp1037
S'high_fuses'
p1038
S'0xca'
p1039
sS'low_fuses'
p1040
S'0xdf'
p1041
sS'lock_bits'
p1042
S'0x0F'
p1043
sS'file'
p1044
S'ATmegaBOOT-prod-firmware-2009-11-07.hex'
p1045
sS'path'
p1046
S'atmega8'
p1047
sS'unlock_bits'
p1048
S'0x3F'
p1049
ssS'upload'
p1050
(dp1051
S'speed'
p1052
S'19200'
p1053
sS'maximum_size'
p1054
S'7168'
p1055
sS'protocol'
p1056
S'arduino'
p1057
ssS'name'
p1058
S'Arduino NG or older w/ ATmega8'
p1059
sS'build'
p1060
(dp1061
S'core'
p1062
S'arduino'
p1063
sS'mcu'
p1064
S'atmega8'
p1065
sS'f_cpu'
p1066
S'16000000L'
p1067
sS'variant'
p1068
S'standard'
p1069
ssaa(lp1070
S'robotControl'
p1071
a(dp1072
S'bootloader'
p1073
(dp1074
S'extended_fuses'
p1075
S'0xcb'
p1076
sS'high_fuses'
p1077
S'0xd8'
p1078
sS'low_fuses'
p1079
S'0xff'
p1080
sS'lock_bits'
p1081
S'0x2F'
p1082
sS'file'
p1083
S'Caterina-Robot-Control.hex'
p1084
sS'path'
p1085
S'caterina-Arduino_Robot'
p1086
sS'unlock_bits'
p1087
S'0x3F'
p1088
ssS'upload'
p1089
(dp1090
S'speed'
p1091
S'57600'
p1092
sS'maximum_size'
p1093
S'28672'
p1094
sS'protocol'
p1095
S'avr109'
p1096
sS'disable_flushing'
p1097
S'true'
p1098
ssS'name'
p1099
S'Arduino Robot Control'
p1100
sS'build'
p1101
(dp1102
S'core'
p1103
S'robot'
p1104
sS'f_cpu'
p1105
S'16000000L'
p1106
sS'vid'
p1107
S'0x2341'
p1108
sS'pid'
p1109
S'0x8038'
p1110
sS'variant'
p1111
S'robot_control'
p1112
sS'mcu'
p1113
S'atmega32u4'
p1114
ssaa(lp1115
S'robotMotor'
p1116
a(dp1117
S'bootloader'
p1118
(dp1119
S'extended_fuses'
p1120
S'0xcb'
p1121
sS'high_fuses'
p1122
S'0xd8'
p1123
sS'low_fuses'
p1124
S'0xff'
p1125
sS'lock_bits'
p1126
S'0x2F'
p1127
sS'file'
p1128
S'Caterina-Robot-Motor.hex'
p1129
sS'path'
p1130
S'caterina-Arduino_Robot'
p1131
sS'unlock_bits'
p1132
S'0x3F'
p1133
ssS'upload'
p1134
(dp1135
S'speed'
p1136
S'57600'
p1137
sS'maximum_size'
p1138
S'28672'
p1139
sS'protocol'
p1140
S'avr109'
p1141
sS'disable_flushing'
p1142
S'true'
p1143
ssS'name'
p1144
S'Arduino Robot Motor'
p1145
sS'build'
p1146
(dp1147
S'core'
p1148
S'robot'
p1149
sS'f_cpu'
p1150
S'16000000L'
p1151
sS'vid'
p1152
S'0x2341'
p1153
sS'pid'
p1154
S'0x8039'
p1155
sS'variant'
p1156
S'robot_motor'
p1157
sS'mcu'
p1158
S'atmega32u4'
p1159
ssaatp1160
Rp1161
(dp1162
S'default'
p1163
S'uno'
p1164
sbtp1165
a(S'used_libs'
p1166
(lp1167
S'lib/ControllerLib'
p1168
aS'lib/USB_Host_Shield'
p1169
aS'/usr/share/arduino/hardware/arduino/cores/arduino'
p1170
atp1171
a(S'make'
p1172
S'/usr/share/arduino/hardware/tools/avr/bin/make'
p1173
tp1174
a(S'arduino_libraries_dir'
p1175
S'/usr/share/arduino/libraries'
p1176
tp1177
a(S'cc'
p1178
S'/usr/share/arduino/hardware/tools/avr/bin/avr-gcc'
p1179
tp1180
a(S'cflags'
p1181
g2
(g3
g4
(lp1182
tp1183
Rp1184
tp1185
a(S'cxxflags'
p1186
g2
(g3
g4
(lp1187
S'-fno-exceptions'
p1188
atp1189
Rp1190
tp1191
a(S'arduino_variants_dir'
p1192
S'/usr/share/arduino/hardware/arduino/variants'
p1193
tp1194
a(S'serial'
p1195
S'/usr/bin/picocom'
p1196
tp1197
a(S'stty'
p1198
S'/bin/stty'
p1199
tp1200
a(S'version.txt'
p1201
S'/usr/share/arduino/lib/version.txt'
p1202
tp1203
a(S'arduino_core_dir'
p1204
g1170
tp1205
a(S'boards.txt'
p1206
S'/usr/share/arduino/hardware/arduino/boards.txt'
p1207
tp1208
a(S'avrdude.conf'
p1209
S'/usr/share/arduino/hardware/tools/avrdude.conf'
p1210
tp1211
a(g44
g2
(g3
g4
(lp1212
S'.build/mega2560/src/dependencies.d'
p1213
aS'.build/mega2560/arduino/dependencies.d'
p1214
aS'.build/mega2560/ControllerLib/dependencies.d'
p1215
aS'.build/mega2560/USB_Host_Shield/dependencies.d'
p1216
atp1217
Rp1218
tp1219
a.