(lp0
(S'cppflags'
p1
ccopy_reg
_reconstructor
p2
(cino.utils
SpaceList
p3
c__builtin__
list
p4
(lp5
S'-mmcu=atmega2560'
p6
aS'-DF_CPU=16000000L'
p7
aS'-DARDUINO=105'
p8
aS'-I/usr/share/arduino/hardware/arduino/cores/arduino'
p9
aS'-ffunction-sections'
p10
aS'-fdata-sections'
p11
aS'-g'
p12
aS'-Os'
p13
aS'-w'
p14
aS'-I/usr/share/arduino/hardware/arduino/variants/mega'
p15
aS'-Ilib/ControllerAPI'
p16
aS'-Ilib/USB_Host_Shield'
p17
aS'-I/usr/share/arduino/hardware/arduino/cores/arduino'
p18
aS'-I/usr/share/arduino/hardware/arduino/cores/arduino/avr-libc'
p19
atp20
Rp21
tp22
a(S'cxx'
p23
S'/usr/share/arduino/hardware/tools/avr/bin/avr-g++'
p24
tp25
a(S'arduino_libraries_dir'
p26
S'/usr/share/arduino/libraries'
p27
tp28
a(S'avrdude'
p29
S'/usr/share/arduino/hardware/tools/avrdude'
p30
tp31
a(S'ar'
p32
S'/usr/share/arduino/hardware/tools/avr/bin/avr-ar'
p33
tp34
a(S'names'
p35
(dp36
S'cpp'
p37
S'%s.cpp'
p38
sS'obj'
p39
S'%s.o'
p40
sS'deps'
p41
S'%s.d'
p42
sS'lib'
p43
S'lib%s.a'
p44
stp45
a(S'ldflags'
p46
g2
(g3
g4
(lp47
g6
aS'-Wl,-Os'
p48
aS'-Wl,--gc-sections'
p49
atp50
Rp51
tp52
a(S'arduino_lib_version'
p53
g2
(cino.environment
Version
p54
c__builtin__
tuple
p55
(I1
I0
I5
tp56
tp57
Rp58
tp59
a(S'objcopy'
p60
S'/usr/share/arduino/hardware/tools/avr/bin/avr-objcopy'
p61
tp62
a(S'board_models'
p63
cino.environment
BoardModels
p64
((lp65
(lp66
S'uno'
p67
a(dp68
S'build'
p69
(dp70
S'core'
p71
S'arduino'
p72
sS'mcu'
p73
S'atmega328p'
p74
sS'f_cpu'
p75
S'16000000L'
p76
sS'variant'
p77
S'standard'
p78
ssS'bootloader'
p79
(dp80
S'extended_fuses'
p81
S'0x05'
p82
sS'high_fuses'
p83
S'0xde'
p84
sS'low_fuses'
p85
S'0xff'
p86
sS'lock_bits'
p87
S'0x0F'
p88
sS'file'
p89
S'optiboot_atmega328.hex'
p90
sS'path'
p91
S'optiboot'
p92
sS'unlock_bits'
p93
S'0x3F'
p94
ssS'upload'
p95
(dp96
S'protocol'
p97
S'arduino'
p98
sS'maximum_size'
p99
S'32256'
p100
sS'speed'
p101
S'115200'
p102
ssS'name'
p103
S'Arduino Uno'
p104
saa(lp105
S'atmega328'
p106
a(dp107
S'build'
p108
(dp109
S'core'
p110
S'arduino'
p111
sS'mcu'
p112
S'atmega328p'
p113
sS'f_cpu'
p114
S'16000000L'
p115
sS'variant'
p116
S'standard'
p117
ssS'bootloader'
p118
(dp119
S'extended_fuses'
p120
S'0x05'
p121
sS'high_fuses'
p122
S'0xDA'
p123
sS'low_fuses'
p124
S'0xFF'
p125
sS'lock_bits'
p126
S'0x0F'
p127
sS'file'
p128
S'ATmegaBOOT_168_atmega328.hex'
p129
sS'path'
p130
S'atmega'
p131
sS'unlock_bits'
p132
S'0x3F'
p133
ssS'upload'
p134
(dp135
S'protocol'
p136
S'arduino'
p137
sS'maximum_size'
p138
S'30720'
p139
sS'speed'
p140
S'57600'
p141
ssS'name'
p142
S'Arduino Duemilanove w/ ATmega328'
p143
saa(lp144
S'diecimila'
p145
a(dp146
S'build'
p147
(dp148
S'core'
p149
S'arduino'
p150
sS'mcu'
p151
S'atmega168'
p152
sS'f_cpu'
p153
S'16000000L'
p154
sS'variant'
p155
S'standard'
p156
ssS'bootloader'
p157
(dp158
S'extended_fuses'
p159
S'0x00'
p160
sS'high_fuses'
p161
S'0xdd'
p162
sS'low_fuses'
p163
S'0xff'
p164
sS'lock_bits'
p165
S'0x0F'
p166
sS'file'
p167
S'ATmegaBOOT_168_diecimila.hex'
p168
sS'path'
p169
S'atmega'
p170
sS'unlock_bits'
p171
S'0x3F'
p172
ssS'upload'
p173
(dp174
S'protocol'
p175
S'arduino'
p176
sS'maximum_size'
p177
S'14336'
p178
sS'speed'
p179
S'19200'
p180
ssS'name'
p181
S'Arduino Diecimila or Duemilanove w/ ATmega168'
p182
saa(lp183
S'nano328'
p184
a(dp185
S'build'
p186
(dp187
S'core'
p188
S'arduino'
p189
sS'mcu'
p190
S'atmega328p'
p191
sS'f_cpu'
p192
S'16000000L'
p193
sS'variant'
p194
S'eightanaloginputs'
p195
ssS'bootloader'
p196
(dp197
S'extended_fuses'
p198
S'0x05'
p199
sS'high_fuses'
p200
S'0xDA'
p201
sS'low_fuses'
p202
S'0xFF'
p203
sS'lock_bits'
p204
S'0x0F'
p205
sS'file'
p206
S'ATmegaBOOT_168_atmega328.hex'
p207
sS'path'
p208
S'atmega'
p209
sS'unlock_bits'
p210
S'0x3F'
p211
ssS'upload'
p212
(dp213
S'protocol'
p214
S'arduino'
p215
sS'maximum_size'
p216
S'30720'
p217
sS'speed'
p218
S'57600'
p219
ssS'name'
p220
S'Arduino Nano w/ ATmega328'
p221
saa(lp222
S'nano'
p223
a(dp224
S'build'
p225
(dp226
S'core'
p227
S'arduino'
p228
sS'mcu'
p229
S'atmega168'
p230
sS'f_cpu'
p231
S'16000000L'
p232
sS'variant'
p233
S'eightanaloginputs'
p234
ssS'bootloader'
p235
(dp236
S'extended_fuses'
p237
S'0x00'
p238
sS'high_fuses'
p239
S'0xdd'
p240
sS'low_fuses'
p241
S'0xff'
p242
sS'lock_bits'
p243
S'0x0F'
p244
sS'file'
p245
S'ATmegaBOOT_168_diecimila.hex'
p246
sS'path'
p247
S'atmega'
p248
sS'unlock_bits'
p249
S'0x3F'
p250
ssS'upload'
p251
(dp252
S'protocol'
p253
S'arduino'
p254
sS'maximum_size'
p255
S'14336'
p256
sS'speed'
p257
S'19200'
p258
ssS'name'
p259
S'Arduino Nano w/ ATmega168'
p260
saa(lp261
S'mega2560'
p262
a(dp263
S'build'
p264
(dp265
S'core'
p266
S'arduino'
p267
sS'mcu'
p268
S'atmega2560'
p269
sS'f_cpu'
p270
S'16000000L'
p271
sS'variant'
p272
S'mega'
p273
ssS'bootloader'
p274
(dp275
S'extended_fuses'
p276
S'0xFD'
p277
sS'high_fuses'
p278
S'0xD8'
p279
sS'low_fuses'
p280
S'0xFF'
p281
sS'lock_bits'
p282
S'0x0F'
p283
sS'file'
p284
S'stk500boot_v2_mega2560.hex'
p285
sS'path'
p286
S'stk500v2'
p287
sS'unlock_bits'
p288
S'0x3F'
p289
ssS'upload'
p290
(dp291
S'protocol'
p292
S'wiring'
p293
sS'maximum_size'
p294
S'258048'
p295
sS'speed'
p296
S'115200'
p297
ssS'name'
p298
S'Arduino Mega 2560 or Mega ADK'
p299
saa(lp300
S'mega'
p301
a(dp302
S'build'
p303
(dp304
S'core'
p305
S'arduino'
p306
sS'mcu'
p307
S'atmega1280'
p308
sS'f_cpu'
p309
S'16000000L'
p310
sS'variant'
p311
S'mega'
p312
ssS'bootloader'
p313
(dp314
S'extended_fuses'
p315
S'0xF5'
p316
sS'high_fuses'
p317
S'0xDA'
p318
sS'low_fuses'
p319
S'0xFF'
p320
sS'lock_bits'
p321
S'0x0F'
p322
sS'file'
p323
S'ATmegaBOOT_168_atmega1280.hex'
p324
sS'path'
p325
S'atmega'
p326
sS'unlock_bits'
p327
S'0x3F'
p328
ssS'upload'
p329
(dp330
S'protocol'
p331
S'arduino'
p332
sS'maximum_size'
p333
S'126976'
p334
sS'speed'
p335
S'57600'
p336
ssS'name'
p337
S'Arduino Mega (ATmega1280)'
p338
saa(lp339
S'leonardo'
p340
a(dp341
S'build'
p342
(dp343
S'core'
p344
S'arduino'
p345
sS'f_cpu'
p346
S'16000000L'
p347
sS'vid'
p348
S'0x2341'
p349
sS'pid'
p350
S'0x8036'
p351
sS'variant'
p352
S'leonardo'
p353
sS'mcu'
p354
S'atmega32u4'
p355
ssS'bootloader'
p356
(dp357
S'extended_fuses'
p358
S'0xcb'
p359
sS'high_fuses'
p360
S'0xd8'
p361
sS'low_fuses'
p362
S'0xff'
p363
sS'lock_bits'
p364
S'0x2F'
p365
sS'file'
p366
S'Caterina-Leonardo.hex'
p367
sS'path'
p368
S'caterina'
p369
sS'unlock_bits'
p370
S'0x3F'
p371
ssS'upload'
p372
(dp373
S'protocol'
p374
S'avr109'
p375
sS'maximum_size'
p376
S'28672'
p377
sS'speed'
p378
S'57600'
p379
sS'disable_flushing'
p380
S'true'
p381
ssS'name'
p382
S'Arduino Leonardo'
p383
saa(lp384
S'esplora'
p385
a(dp386
S'build'
p387
(dp388
S'core'
p389
S'arduino'
p390
sS'f_cpu'
p391
S'16000000L'
p392
sS'vid'
p393
S'0x2341'
p394
sS'pid'
p395
S'0x803C'
p396
sS'variant'
p397
S'leonardo'
p398
sS'mcu'
p399
S'atmega32u4'
p400
ssS'bootloader'
p401
(dp402
S'extended_fuses'
p403
S'0xcb'
p404
sS'high_fuses'
p405
S'0xd8'
p406
sS'low_fuses'
p407
S'0xff'
p408
sS'lock_bits'
p409
S'0x2F'
p410
sS'file'
p411
S'Caterina-Esplora.hex'
p412
sS'path'
p413
S'caterina'
p414
sS'unlock_bits'
p415
S'0x3F'
p416
ssS'upload'
p417
(dp418
S'protocol'
p419
S'avr109'
p420
sS'maximum_size'
p421
S'28672'
p422
sS'speed'
p423
S'57600'
p424
sS'disable_flushing'
p425
S'true'
p426
ssS'name'
p427
S'Arduino Esplora'
p428
saa(lp429
S'micro'
p430
a(dp431
S'build'
p432
(dp433
S'core'
p434
S'arduino'
p435
sS'f_cpu'
p436
S'16000000L'
p437
sS'vid'
p438
S'0x2341'
p439
sS'pid'
p440
S'0x8037'
p441
sS'variant'
p442
S'micro'
p443
sS'mcu'
p444
S'atmega32u4'
p445
ssS'bootloader'
p446
(dp447
S'extended_fuses'
p448
S'0xcb'
p449
sS'high_fuses'
p450
S'0xd8'
p451
sS'low_fuses'
p452
S'0xff'
p453
sS'lock_bits'
p454
S'0x2F'
p455
sS'file'
p456
S'Caterina-Micro.hex'
p457
sS'path'
p458
S'caterina'
p459
sS'unlock_bits'
p460
S'0x3F'
p461
ssS'upload'
p462
(dp463
S'protocol'
p464
S'avr109'
p465
sS'maximum_size'
p466
S'28672'
p467
sS'speed'
p468
S'57600'
p469
sS'disable_flushing'
p470
S'true'
p471
ssS'name'
p472
S'Arduino Micro'
p473
saa(lp474
S'mini328'
p475
a(dp476
S'build'
p477
(dp478
S'core'
p479
S'arduino'
p480
sS'mcu'
p481
S'atmega328p'
p482
sS'f_cpu'
p483
S'16000000L'
p484
sS'variant'
p485
S'eightanaloginputs'
p486
ssS'bootloader'
p487
(dp488
S'extended_fuses'
p489
S'0x05'
p490
sS'high_fuses'
p491
S'0xd8'
p492
sS'low_fuses'
p493
S'0xff'
p494
sS'lock_bits'
p495
S'0x0F'
p496
sS'file'
p497
S'optiboot_atmega328-Mini.hex'
p498
sS'path'
p499
S'optiboot'
p500
sS'unlock_bits'
p501
S'0x3F'
p502
ssS'upload'
p503
(dp504
S'protocol'
p505
S'arduino'
p506
sS'maximum_size'
p507
S'28672'
p508
sS'speed'
p509
S'115200'
p510
ssS'name'
p511
S'Arduino Mini w/ ATmega328'
p512
saa(lp513
S'mini'
p514
a(dp515
S'build'
p516
(dp517
S'core'
p518
S'arduino'
p519
sS'mcu'
p520
S'atmega168'
p521
sS'f_cpu'
p522
S'16000000L'
p523
sS'variant'
p524
S'eightanaloginputs'
p525
ssS'bootloader'
p526
(dp527
S'extended_fuses'
p528
S'0x00'
p529
sS'high_fuses'
p530
S'0xdd'
p531
sS'low_fuses'
p532
S'0xff'
p533
sS'lock_bits'
p534
S'0x0F'
p535
sS'file'
p536
S'ATmegaBOOT_168_ng.hex'
p537
sS'path'
p538
S'atmega'
p539
sS'unlock_bits'
p540
S'0x3F'
p541
ssS'upload'
p542
(dp543
S'protocol'
p544
S'arduino'
p545
sS'maximum_size'
p546
S'14336'
p547
sS'speed'
p548
S'19200'
p549
ssS'name'
p550
S'Arduino Mini w/ ATmega168'
p551
saa(lp552
S'ethernet'
p553
a(dp554
S'build'
p555
(dp556
S'variant'
p557
S'standard'
p558
sS'mcu'
p559
S'atmega328p'
p560
sS'f_cpu'
p561
S'16000000L'
p562
sS'core'
p563
S'arduino'
p564
ssS'bootloader'
p565
(dp566
S'extended_fuses'
p567
S'0x05'
p568
sS'high_fuses'
p569
S'0xde'
p570
sS'low_fuses'
p571
S'0xff'
p572
sS'lock_bits'
p573
S'0x0F'
p574
sS'file'
p575
S'optiboot_atmega328.hex'
p576
sS'path'
p577
S'optiboot'
p578
sS'unlock_bits'
p579
S'0x3F'
p580
ssS'upload'
p581
(dp582
S'protocol'
p583
S'arduino'
p584
sS'maximum_size'
p585
S'32256'
p586
sS'speed'
p587
S'115200'
p588
ssS'name'
p589
S'Arduino Ethernet'
p590
saa(lp591
S'fio'
p592
a(dp593
S'build'
p594
(dp595
S'core'
p596
S'arduino'
p597
sS'mcu'
p598
S'atmega328p'
p599
sS'f_cpu'
p600
S'8000000L'
p601
sS'variant'
p602
S'eightanaloginputs'
p603
ssS'bootloader'
p604
(dp605
S'extended_fuses'
p606
S'0x05'
p607
sS'high_fuses'
p608
S'0xDA'
p609
sS'low_fuses'
p610
S'0xFF'
p611
sS'lock_bits'
p612
S'0x0F'
p613
sS'file'
p614
S'ATmegaBOOT_168_atmega328_pro_8MHz.hex'
p615
sS'path'
p616
S'arduino:atmega'
p617
sS'unlock_bits'
p618
S'0x3F'
p619
ssS'upload'
p620
(dp621
S'protocol'
p622
S'arduino'
p623
sS'maximum_size'
p624
S'30720'
p625
sS'speed'
p626
S'57600'
p627
ssS'name'
p628
S'Arduino Fio'
p629
saa(lp630
S'bt328'
p631
a(dp632
S'build'
p633
(dp634
S'core'
p635
S'arduino'
p636
sS'mcu'
p637
S'atmega328p'
p638
sS'f_cpu'
p639
S'16000000L'
p640
sS'variant'
p641
S'eightanaloginputs'
p642
ssS'bootloader'
p643
(dp644
S'extended_fuses'
p645
S'0x05'
p646
sS'high_fuses'
p647
S'0xd8'
p648
sS'low_fuses'
p649
S'0xff'
p650
sS'lock_bits'
p651
S'0x0F'
p652
sS'file'
p653
S'ATmegaBOOT_168_atmega328_bt.hex'
p654
sS'path'
p655
S'bt'
p656
sS'unlock_bits'
p657
S'0x3F'
p658
ssS'upload'
p659
(dp660
S'protocol'
p661
S'arduino'
p662
sS'maximum_size'
p663
S'28672'
p664
sS'speed'
p665
S'19200'
p666
sS'disable_flushing'
p667
S'true'
p668
ssS'name'
p669
S'Arduino BT w/ ATmega328'
p670
saa(lp671
S'bt'
p672
a(dp673
S'build'
p674
(dp675
S'core'
p676
S'arduino'
p677
sS'mcu'
p678
S'atmega168'
p679
sS'f_cpu'
p680
S'16000000L'
p681
sS'variant'
p682
S'eightanaloginputs'
p683
ssS'bootloader'
p684
(dp685
S'extended_fuses'
p686
S'0x00'
p687
sS'high_fuses'
p688
S'0xdd'
p689
sS'low_fuses'
p690
S'0xff'
p691
sS'lock_bits'
p692
S'0x0F'
p693
sS'file'
p694
S'ATmegaBOOT_168.hex'
p695
sS'path'
p696
S'bt'
p697
sS'unlock_bits'
p698
S'0x3F'
p699
ssS'upload'
p700
(dp701
S'protocol'
p702
S'arduino'
p703
sS'maximum_size'
p704
S'14336'
p705
sS'speed'
p706
S'19200'
p707
sS'disable_flushing'
p708
S'true'
p709
ssS'name'
p710
S'Arduino BT w/ ATmega168'
p711
saa(lp712
S'LilyPadUSB'
p713
a(dp714
S'build'
p715
(dp716
S'core'
p717
S'arduino'
p718
sS'f_cpu'
p719
S'8000000L'
p720
sS'vid'
p721
S'0x1B4F'
p722
sS'pid'
p723
S'0x9208'
p724
sS'variant'
p725
S'leonardo'
p726
sS'mcu'
p727
S'atmega32u4'
p728
ssS'bootloader'
p729
(dp730
S'extended_fuses'
p731
S'0xce'
p732
sS'high_fuses'
p733
S'0xd8'
p734
sS'low_fuses'
p735
S'0xff'
p736
sS'lock_bits'
p737
S'0x2F'
p738
sS'file'
p739
S'Caterina-LilyPadUSB.hex'
p740
sS'path'
p741
S'caterina-LilyPadUSB'
p742
sS'unlock_bits'
p743
S'0x3F'
p744
ssS'upload'
p745
(dp746
S'protocol'
p747
S'avr109'
p748
sS'maximum_size'
p749
S'28672'
p750
sS'speed'
p751
S'57600'
p752
sS'disable_flushing'
p753
S'true'
p754
ssS'name'
p755
S'LilyPad Arduino USB'
p756
saa(lp757
S'lilypad328'
p758
a(dp759
S'build'
p760
(dp761
S'core'
p762
S'arduino'
p763
sS'mcu'
p764
S'atmega328p'
p765
sS'f_cpu'
p766
S'8000000L'
p767
sS'variant'
p768
S'standard'
p769
ssS'bootloader'
p770
(dp771
S'extended_fuses'
p772
S'0x05'
p773
sS'high_fuses'
p774
S'0xDA'
p775
sS'low_fuses'
p776
S'0xFF'
p777
sS'lock_bits'
p778
S'0x0F'
p779
sS'file'
p780
S'ATmegaBOOT_168_atmega328_pro_8MHz.hex'
p781
sS'path'
p782
S'atmega'
p783
sS'unlock_bits'
p784
S'0x3F'
p785
ssS'upload'
p786
(dp787
S'protocol'
p788
S'arduino'
p789
sS'maximum_size'
p790
S'30720'
p791
sS'speed'
p792
S'57600'
p793
ssS'name'
p794
S'LilyPad Arduino w/ ATmega328'
p795
saa(lp796
S'lilypad'
p797
a(dp798
S'build'
p799
(dp800
S'core'
p801
S'arduino'
p802
sS'mcu'
p803
S'atmega168'
p804
sS'f_cpu'
p805
S'8000000L'
p806
sS'variant'
p807
S'standard'
p808
ssS'bootloader'
p809
(dp810
S'extended_fuses'
p811
S'0x00'
p812
sS'high_fuses'
p813
S'0xdd'
p814
sS'low_fuses'
p815
S'0xe2'
p816
sS'lock_bits'
p817
S'0x0F'
p818
sS'file'
p819
S'LilyPadBOOT_168.hex'
p820
sS'path'
p821
S'lilypad'
p822
sS'unlock_bits'
p823
S'0x3F'
p824
ssS'upload'
p825
(dp826
S'protocol'
p827
S'arduino'
p828
sS'maximum_size'
p829
S'14336'
p830
sS'speed'
p831
S'19200'
p832
ssS'name'
p833
S'LilyPad Arduino w/ ATmega168'
p834
saa(lp835
S'pro5v328'
p836
a(dp837
S'build'
p838
(dp839
S'core'
p840
S'arduino'
p841
sS'mcu'
p842
S'atmega328p'
p843
sS'f_cpu'
p844
S'16000000L'
p845
sS'variant'
p846
S'standard'
p847
ssS'bootloader'
p848
(dp849
S'extended_fuses'
p850
S'0x05'
p851
sS'high_fuses'
p852
S'0xDA'
p853
sS'low_fuses'
p854
S'0xFF'
p855
sS'lock_bits'
p856
S'0x0F'
p857
sS'file'
p858
S'ATmegaBOOT_168_atmega328.hex'
p859
sS'path'
p860
S'atmega'
p861
sS'unlock_bits'
p862
S'0x3F'
p863
ssS'upload'
p864
(dp865
S'protocol'
p866
S'arduino'
p867
sS'maximum_size'
p868
S'30720'
p869
sS'speed'
p870
S'57600'
p871
ssS'name'
p872
S'Arduino Pro or Pro Mini (5V, 16 MHz) w/ ATmega328'
p873
saa(lp874
S'pro5v'
p875
a(dp876
S'build'
p877
(dp878
S'core'
p879
S'arduino'
p880
sS'mcu'
p881
S'atmega168'
p882
sS'f_cpu'
p883
S'16000000L'
p884
sS'variant'
p885
S'standard'
p886
ssS'bootloader'
p887
(dp888
S'extended_fuses'
p889
S'0x00'
p890
sS'high_fuses'
p891
S'0xdd'
p892
sS'low_fuses'
p893
S'0xff'
p894
sS'lock_bits'
p895
S'0x0F'
p896
sS'file'
p897
S'ATmegaBOOT_168_diecimila.hex'
p898
sS'path'
p899
S'atmega'
p900
sS'unlock_bits'
p901
S'0x3F'
p902
ssS'upload'
p903
(dp904
S'protocol'
p905
S'arduino'
p906
sS'maximum_size'
p907
S'14336'
p908
sS'speed'
p909
S'19200'
p910
ssS'name'
p911
S'Arduino Pro or Pro Mini (5V, 16 MHz) w/ ATmega168'
p912
saa(lp913
S'pro328'
p914
a(dp915
S'build'
p916
(dp917
S'core'
p918
S'arduino'
p919
sS'mcu'
p920
S'atmega328p'
p921
sS'f_cpu'
p922
S'8000000L'
p923
sS'variant'
p924
S'standard'
p925
ssS'bootloader'
p926
(dp927
S'extended_fuses'
p928
S'0x05'
p929
sS'high_fuses'
p930
S'0xDA'
p931
sS'low_fuses'
p932
S'0xFF'
p933
sS'lock_bits'
p934
S'0x0F'
p935
sS'file'
p936
S'ATmegaBOOT_168_atmega328_pro_8MHz.hex'
p937
sS'path'
p938
S'atmega'
p939
sS'unlock_bits'
p940
S'0x3F'
p941
ssS'upload'
p942
(dp943
S'protocol'
p944
S'arduino'
p945
sS'maximum_size'
p946
S'30720'
p947
sS'speed'
p948
S'57600'
p949
ssS'name'
p950
S'Arduino Pro or Pro Mini (3.3V, 8 MHz) w/ ATmega328'
p951
saa(lp952
S'pro'
p953
a(dp954
S'build'
p955
(dp956
S'core'
p957
S'arduino'
p958
sS'mcu'
p959
S'atmega168'
p960
sS'f_cpu'
p961
S'8000000L'
p962
sS'variant'
p963
S'standard'
p964
ssS'bootloader'
p965
(dp966
S'extended_fuses'
p967
S'0x00'
p968
sS'high_fuses'
p969
S'0xdd'
p970
sS'low_fuses'
p971
S'0xc6'
p972
sS'lock_bits'
p973
S'0x0F'
p974
sS'file'
p975
S'ATmegaBOOT_168_pro_8MHz.hex'
p976
sS'path'
p977
S'atmega'
p978
sS'unlock_bits'
p979
S'0x3F'
p980
ssS'upload'
p981
(dp982
S'protocol'
p983
S'arduino'
p984
sS'maximum_size'
p985
S'14336'
p986
sS'speed'
p987
S'19200'
p988
ssS'name'
p989
S'Arduino Pro or Pro Mini (3.3V, 8 MHz) w/ ATmega168'
p990
saa(lp991
S'atmega168'
p992
a(dp993
S'build'
p994
(dp995
S'core'
p996
S'arduino'
p997
sS'mcu'
p998
S'atmega168'
p999
sS'f_cpu'
p1000
S'16000000L'
p1001
sS'variant'
p1002
S'standard'
p1003
ssS'bootloader'
p1004
(dp1005
S'extended_fuses'
p1006
S'0x00'
p1007
sS'high_fuses'
p1008
S'0xdd'
p1009
sS'low_fuses'
p1010
S'0xff'
p1011
sS'lock_bits'
p1012
S'0x0F'
p1013
sS'file'
p1014
S'ATmegaBOOT_168_ng.hex'
p1015
sS'path'
p1016
S'atmega'
p1017
sS'unlock_bits'
p1018
S'0x3F'
p1019
ssS'upload'
p1020
(dp1021
S'protocol'
p1022
S'arduino'
p1023
sS'maximum_size'
p1024
S'14336'
p1025
sS'speed'
p1026
S'19200'
p1027
ssS'name'
p1028
S'Arduino NG or older w/ ATmega168'
p1029
saa(lp1030
S'atmega8'
p1031
a(dp1032
S'build'
p1033
(dp1034
S'core'
p1035
S'arduino'
p1036
sS'mcu'
p1037
S'atmega8'
p1038
sS'f_cpu'
p1039
S'16000000L'
p1040
sS'variant'
p1041
S'standard'
p1042
ssS'bootloader'
p1043
(dp1044
S'high_fuses'
p1045
S'0xca'
p1046
sS'low_fuses'
p1047
S'0xdf'
p1048
sS'lock_bits'
p1049
S'0x0F'
p1050
sS'file'
p1051
S'ATmegaBOOT-prod-firmware-2009-11-07.hex'
p1052
sS'path'
p1053
S'atmega8'
p1054
sS'unlock_bits'
p1055
S'0x3F'
p1056
ssS'upload'
p1057
(dp1058
S'protocol'
p1059
S'arduino'
p1060
sS'maximum_size'
p1061
S'7168'
p1062
sS'speed'
p1063
S'19200'
p1064
ssS'name'
p1065
S'Arduino NG or older w/ ATmega8'
p1066
saa(lp1067
S'robotControl'
p1068
a(dp1069
S'build'
p1070
(dp1071
S'core'
p1072
S'robot'
p1073
sS'f_cpu'
p1074
S'16000000L'
p1075
sS'vid'
p1076
S'0x2341'
p1077
sS'pid'
p1078
S'0x8038'
p1079
sS'variant'
p1080
S'robot_control'
p1081
sS'mcu'
p1082
S'atmega32u4'
p1083
ssS'bootloader'
p1084
(dp1085
S'extended_fuses'
p1086
S'0xcb'
p1087
sS'high_fuses'
p1088
S'0xd8'
p1089
sS'low_fuses'
p1090
S'0xff'
p1091
sS'lock_bits'
p1092
S'0x2F'
p1093
sS'file'
p1094
S'Caterina-Robot-Control.hex'
p1095
sS'path'
p1096
S'caterina-Arduino_Robot'
p1097
sS'unlock_bits'
p1098
S'0x3F'
p1099
ssS'upload'
p1100
(dp1101
S'protocol'
p1102
S'avr109'
p1103
sS'maximum_size'
p1104
S'28672'
p1105
sS'speed'
p1106
S'57600'
p1107
sS'disable_flushing'
p1108
S'true'
p1109
ssS'name'
p1110
S'Arduino Robot Control'
p1111
saa(lp1112
S'robotMotor'
p1113
a(dp1114
S'build'
p1115
(dp1116
S'core'
p1117
S'robot'
p1118
sS'f_cpu'
p1119
S'16000000L'
p1120
sS'vid'
p1121
S'0x2341'
p1122
sS'pid'
p1123
S'0x8039'
p1124
sS'variant'
p1125
S'robot_motor'
p1126
sS'mcu'
p1127
S'atmega32u4'
p1128
ssS'bootloader'
p1129
(dp1130
S'extended_fuses'
p1131
S'0xcb'
p1132
sS'high_fuses'
p1133
S'0xd8'
p1134
sS'low_fuses'
p1135
S'0xff'
p1136
sS'lock_bits'
p1137
S'0x2F'
p1138
sS'file'
p1139
S'Caterina-Robot-Motor.hex'
p1140
sS'path'
p1141
S'caterina-Arduino_Robot'
p1142
sS'unlock_bits'
p1143
S'0x3F'
p1144
ssS'upload'
p1145
(dp1146
S'protocol'
p1147
S'avr109'
p1148
sS'maximum_size'
p1149
S'28672'
p1150
sS'speed'
p1151
S'57600'
p1152
sS'disable_flushing'
p1153
S'true'
p1154
ssS'name'
p1155
S'Arduino Robot Motor'
p1156
saatp1157
Rp1158
(dp1159
S'default'
p1160
S'uno'
p1161
sbtp1162
a(S'used_libs'
p1163
(lp1164
S'lib/ControllerAPI'
p1165
aS'lib/USB_Host_Shield'
p1166
aS'/usr/share/arduino/hardware/arduino/cores/arduino'
p1167
atp1168
a(S'make'
p1169
S'/usr/share/arduino/hardware/tools/avr/bin/make'
p1170
tp1171
a(S'build_dir'
p1172
S'.build/uno'
p1173
tp1174
a(S'cc'
p1175
S'/usr/share/arduino/hardware/tools/avr/bin/avr-gcc'
p1176
tp1177
a(S'cflags'
p1178
g2
(g3
g4
(lp1179
tp1180
Rp1181
tp1182
a(S'cxxflags'
p1183
g2
(g3
g4
(lp1184
S'-fno-exceptions'
p1185
atp1186
Rp1187
tp1188
a(S'arduino_variants_dir'
p1189
S'/usr/share/arduino/hardware/arduino/variants'
p1190
tp1191
a(S'serial'
p1192
S'/usr/bin/picocom'
p1193
tp1194
a(S'stty'
p1195
S'/bin/stty'
p1196
tp1197
a(S'version.txt'
p1198
S'/usr/share/arduino/lib/version.txt'
p1199
tp1200
a(S'arduino_core_dir'
p1201
g1167
tp1202
a(S'boards.txt'
p1203
S'/usr/share/arduino/hardware/arduino/boards.txt'
p1204
tp1205
a(S'avrdude.conf'
p1206
S'/usr/share/arduino/hardware/tools/avrdude.conf'
p1207
tp1208
a(S'deps'
p1209
g2
(g3
g4
(lp1210
S'.build/mega2560/src/dependencies.d'
p1211
aS'.build/mega2560/arduino/dependencies.d'
p1212
aS'.build/mega2560/USB_Host_Shield/dependencies.d'
p1213
aS'.build/mega2560/ControllerAPI/dependencies.d'
p1214
atp1215
Rp1216
tp1217
a.